; ModuleID = '24/2442.c'
source_filename = "24/2442.c"
target datalayout = "e-m:e-p270:32:32-p271:32:32-p272:64:64-i64:64-f80:128-n8:16:32:64-S128"
target triple = "x86_64-pc-linux-gnu"

@.str = private unnamed_addr constant [3 x i8] c"%c\00", align 1
@.str.1 = private unnamed_addr constant [2 x i8] c"\0A\00", align 1

; Function Attrs: noinline nounwind uwtable
define dso_local i32 @main() #0 {
  %1 = alloca i32, align 4
  %2 = alloca [2000 x i8], align 16
  %3 = alloca i32, align 4
  %4 = alloca i32, align 4
  %5 = alloca i32, align 4
  %6 = alloca i32, align 4
  %7 = alloca i32, align 4
  %8 = alloca i32, align 4
  %9 = alloca i32, align 4
  store i32 0, i32* %1, align 4
  store i32 0, i32* %4, align 4
  store i32 100, i32* %5, align 4
  store i32 0, i32* %9, align 4
  %10 = getelementptr inbounds [2000 x i8], [2000 x i8]* %2, i64 0, i64 0
  %11 = call i32 (i8*, ...) bitcast (i32 (...)* @gets to i32 (i8*, ...)*)(i8* %10)
  %12 = getelementptr inbounds [2000 x i8], [2000 x i8]* %2, i64 0, i64 0
  %13 = call i64 @strlen(i8* %12) #3
  %14 = trunc i64 %13 to i32
  store i32 %14, i32* %8, align 4
  store i32 0, i32* %3, align 4
  br label %15

15:                                               ; preds = %93, %0
  %16 = load i32, i32* %3, align 4
  %17 = load i32, i32* %8, align 4
  %18 = icmp slt i32 %16, %17
  br i1 %18, label %19, label %96

19:                                               ; preds = %15
  %20 = load i32, i32* %3, align 4
  %21 = sext i32 %20 to i64
  %22 = getelementptr inbounds [2000 x i8], [2000 x i8]* %2, i64 0, i64 %21
  %23 = load i8, i8* %22, align 1
  %24 = sext i8 %23 to i32
  %25 = icmp ne i32 %24, 32
  br i1 %25, label %26, label %36

26:                                               ; preds = %19
  %27 = load i32, i32* %3, align 4
  %28 = sext i32 %27 to i64
  %29 = getelementptr inbounds [2000 x i8], [2000 x i8]* %2, i64 0, i64 %28
  %30 = load i8, i8* %29, align 1
  %31 = sext i8 %30 to i32
  %32 = icmp ne i32 %31, 44
  br i1 %32, label %33, label %36

33:                                               ; preds = %26
  %34 = load i32, i32* %9, align 4
  %35 = add nsw i32 %34, 1
  store i32 %35, i32* %9, align 4
  br label %36

36:                                               ; preds = %33, %26, %19
  %37 = load i32, i32* %3, align 4
  %38 = load i32, i32* %8, align 4
  %39 = sub nsw i32 %38, 1
  %40 = icmp eq i32 %37, %39
  br i1 %40, label %55, label %41

41:                                               ; preds = %36
  %42 = load i32, i32* %3, align 4
  %43 = sext i32 %42 to i64
  %44 = getelementptr inbounds [2000 x i8], [2000 x i8]* %2, i64 0, i64 %43
  %45 = load i8, i8* %44, align 1
  %46 = sext i8 %45 to i32
  %47 = icmp eq i32 %46, 32
  br i1 %47, label %55, label %48

48:                                               ; preds = %41
  %49 = load i32, i32* %3, align 4
  %50 = sext i32 %49 to i64
  %51 = getelementptr inbounds [2000 x i8], [2000 x i8]* %2, i64 0, i64 %50
  %52 = load i8, i8* %51, align 1
  %53 = sext i8 %52 to i32
  %54 = icmp eq i32 %53, 44
  br i1 %54, label %55, label %92

55:                                               ; preds = %48, %41, %36
  %56 = load i32, i32* %9, align 4
  %57 = icmp ne i32 %56, 0
  br i1 %57, label %58, label %91

58:                                               ; preds = %55
  %59 = load i32, i32* %9, align 4
  %60 = load i32, i32* %4, align 4
  %61 = icmp sgt i32 %59, %60
  br i1 %61, label %62, label %74

62:                                               ; preds = %58
  %63 = load i32, i32* %9, align 4
  store i32 %63, i32* %4, align 4
  %64 = load i32, i32* %3, align 4
  %65 = load i32, i32* %8, align 4
  %66 = sub nsw i32 %65, 1
  %67 = icmp eq i32 %64, %66
  br i1 %67, label %68, label %70

68:                                               ; preds = %62
  %69 = load i32, i32* %3, align 4
  store i32 %69, i32* %6, align 4
  br label %73

70:                                               ; preds = %62
  %71 = load i32, i32* %3, align 4
  %72 = sub nsw i32 %71, 1
  store i32 %72, i32* %6, align 4
  br label %73

73:                                               ; preds = %70, %68
  br label %74

74:                                               ; preds = %73, %58
  %75 = load i32, i32* %9, align 4
  %76 = load i32, i32* %5, align 4
  %77 = icmp slt i32 %75, %76
  br i1 %77, label %78, label %90

78:                                               ; preds = %74
  %79 = load i32, i32* %9, align 4
  store i32 %79, i32* %5, align 4
  %80 = load i32, i32* %3, align 4
  %81 = load i32, i32* %8, align 4
  %82 = sub nsw i32 %81, 1
  %83 = icmp eq i32 %80, %82
  br i1 %83, label %84, label %86

84:                                               ; preds = %78
  %85 = load i32, i32* %3, align 4
  store i32 %85, i32* %7, align 4
  br label %89

86:                                               ; preds = %78
  %87 = load i32, i32* %3, align 4
  %88 = sub nsw i32 %87, 1
  store i32 %88, i32* %7, align 4
  br label %89

89:                                               ; preds = %86, %84
  br label %90

90:                                               ; preds = %89, %74
  store i32 0, i32* %9, align 4
  br label %91

91:                                               ; preds = %90, %55
  br label %92

92:                                               ; preds = %91, %48
  br label %93

93:                                               ; preds = %92
  %94 = load i32, i32* %3, align 4
  %95 = add nsw i32 %94, 1
  store i32 %95, i32* %3, align 4
  br label %15

96:                                               ; preds = %15
  %97 = load i32, i32* %6, align 4
  %98 = load i32, i32* %4, align 4
  %99 = sub nsw i32 %97, %98
  %100 = add nsw i32 %99, 1
  store i32 %100, i32* %3, align 4
  br label %101

101:                                              ; preds = %112, %96
  %102 = load i32, i32* %3, align 4
  %103 = load i32, i32* %6, align 4
  %104 = icmp sle i32 %102, %103
  br i1 %104, label %105, label %115

105:                                              ; preds = %101
  %106 = load i32, i32* %3, align 4
  %107 = sext i32 %106 to i64
  %108 = getelementptr inbounds [2000 x i8], [2000 x i8]* %2, i64 0, i64 %107
  %109 = load i8, i8* %108, align 1
  %110 = sext i8 %109 to i32
  %111 = call i32 (i8*, ...) @printf(i8* getelementptr inbounds ([3 x i8], [3 x i8]* @.str, i64 0, i64 0), i32 %110)
  br label %112

112:                                              ; preds = %105
  %113 = load i32, i32* %3, align 4
  %114 = add nsw i32 %113, 1
  store i32 %114, i32* %3, align 4
  br label %101

115:                                              ; preds = %101
  %116 = call i32 (i8*, ...) @printf(i8* getelementptr inbounds ([2 x i8], [2 x i8]* @.str.1, i64 0, i64 0))
  %117 = load i32, i32* %7, align 4
  %118 = load i32, i32* %5, align 4
  %119 = sub nsw i32 %117, %118
  %120 = add nsw i32 %119, 1
  store i32 %120, i32* %3, align 4
  br label %121

121:                                              ; preds = %132, %115
  %122 = load i32, i32* %3, align 4
  %123 = load i32, i32* %7, align 4
  %124 = icmp sle i32 %122, %123
  br i1 %124, label %125, label %135

125:                                              ; preds = %121
  %126 = load i32, i32* %3, align 4
  %127 = sext i32 %126 to i64
  %128 = getelementptr inbounds [2000 x i8], [2000 x i8]* %2, i64 0, i64 %127
  %129 = load i8, i8* %128, align 1
  %130 = sext i8 %129 to i32
  %131 = call i32 (i8*, ...) @printf(i8* getelementptr inbounds ([3 x i8], [3 x i8]* @.str, i64 0, i64 0), i32 %130)
  br label %132

132:                                              ; preds = %125
  %133 = load i32, i32* %3, align 4
  %134 = add nsw i32 %133, 1
  store i32 %134, i32* %3, align 4
  br label %121

135:                                              ; preds = %121
  %136 = load i32, i32* %1, align 4
  ret i32 %136
}

declare dso_local i32 @gets(...) #1

; Function Attrs: nounwind readonly
declare dso_local i64 @strlen(i8*) #2

declare dso_local i32 @printf(i8*, ...) #1


!llvm.module.flags = !{!0}
!llvm.ident = !{!1}

!0 = !{i32 1, !"wchar_size", i32 4}
!1 = !{!"clang version 10.0.0-4ubuntu1 "}
